target datalayout = "e-m:e-p270:32:32-p271:32:32-p272:64:64-i64:64-i128:128-f80:128-n8:16:32:64-S128"
target triple = "x86_64-pc-linux-gnu"

; Function Attrs: nounwind uwtable
define internal void @find_best_state(ptr noundef %0, ptr noundef %1) #6 {
  %3 = alloca ptr, align 8
  %4 = alloca ptr, align 8
  %5 = alloca i32, align 4
  %6 = alloca i32, align 4
  %7 = alloca i32, align 4
  %8 = alloca i32, align 4
  %9 = alloca [256 x i32], align 16
  %10 = alloca [256 x i64], align 16
  %11 = alloca [256 x i32], align 16
  %12 = alloca i64, align 8
  %13 = alloca i32, align 4
  %14 = alloca [256 x i32], align 16
  store ptr %0, ptr %3, align 8, !tbaa !56
  store ptr %1, ptr %4, align 8, !tbaa !56
  call void @llvm.lifetime.start.p0(i64 4, ptr %5) #16
  call void @llvm.lifetime.start.p0(i64 4, ptr %6) #16
  call void @llvm.lifetime.start.p0(i64 4, ptr %7) #16
  call void @llvm.lifetime.start.p0(i64 4, ptr %8) #16
  call void @llvm.lifetime.start.p0(i64 1024, ptr %9) #16
  store i32 1, ptr %5, align 4, !tbaa !42
  br label %15

15:                                               ; preds = %29, %2
  %16 = load i32, ptr %5, align 4, !tbaa !42
  %17 = icmp slt i32 %16, 256
  br i1 %17, label %18, label %32

18:                                               ; preds = %15
  %19 = load i32, ptr %5, align 4, !tbaa !42
  %20 = sitofp i32 %19 to double
  %21 = fdiv nsz double %20, 2.560000e+02
  %22 = call nsz double @llvm.log2.f64(double %21)
  %23 = fneg nsz double %22
  %24 = fmul nsz double %23, 0x41B0000000000000
  %25 = fptoui double %24 to i32
  %26 = load i32, ptr %5, align 4, !tbaa !42
  %27 = sext i32 %26 to i64
  %28 = getelementptr inbounds [256 x i32], ptr %9, i64 0, i64 %27
  store i32 %25, ptr %28, align 4, !tbaa !42
  br label %29

29:                                               ; preds = %18
  %30 = load i32, ptr %5, align 4, !tbaa !42
  %31 = add nsw i32 %30, 1
  store i32 %31, ptr %5, align 4, !tbaa !42
  br label %15, !llvm.loop !111

32:                                               ; preds = %15
  store i32 0, ptr %5, align 4, !tbaa !42
  br label %33

33:                                               ; preds = %222, %32
  %34 = load i32, ptr %5, align 4, !tbaa !42
  %35 = icmp slt i32 %34, 256
  br i1 %35, label %36, label %225

36:                                               ; preds = %33
  call void @llvm.lifetime.start.p0(i64 2048, ptr %10) #16
  store i32 0, ptr %6, align 4, !tbaa !42
  br label %37

37:                                               ; preds = %44, %36
  %38 = load i32, ptr %6, align 4, !tbaa !42
  %39 = icmp slt i32 %38, 256
  br i1 %39, label %40, label %47

40:                                               ; preds = %37
  %41 = load i32, ptr %6, align 4, !tbaa !42
  %42 = sext i32 %41 to i64
  %43 = getelementptr inbounds [256 x i64], ptr %10, i64 0, i64 %42
  store i64 -1, ptr %43, align 8, !tbaa !93
  br label %44

44:                                               ; preds = %40
  %45 = load i32, ptr %6, align 4, !tbaa !42
  %46 = add nsw i32 %45, 1
  store i32 %46, ptr %6, align 4, !tbaa !42
  br label %37, !llvm.loop !112

47:                                               ; preds = %37
  %48 = load i32, ptr %5, align 4, !tbaa !42
  %49 = sub nsw i32 %48, 10
  %50 = icmp sgt i32 %49, 1
  br i1 %50, label %51, label %54

51:                                               ; preds = %47
  %52 = load i32, ptr %5, align 4, !tbaa !42
  %53 = sub nsw i32 %52, 10
  br label %55

54:                                               ; preds = %47
  br label %55

55:                                               ; preds = %54, %51
  %56 = phi i32 [ %53, %51 ], [ 1, %54 ]
  store i32 %56, ptr %6, align 4, !tbaa !42
  br label %57

57:                                               ; preds = %218, %55
  %58 = load i32, ptr %6, align 4, !tbaa !42
  %59 = load i32, ptr %5, align 4, !tbaa !42
  %60 = add nsw i32 %59, 11
  %61 = icmp sgt i32 %60, 256
  br i1 %61, label %62, label %63

62:                                               ; preds = %57
  br label %66

63:                                               ; preds = %57
  %64 = load i32, ptr %5, align 4, !tbaa !42
  %65 = add nsw i32 %64, 11
  br label %66

66:                                               ; preds = %63, %62
  %67 = phi i32 [ 256, %62 ], [ %65, %63 ]
  %68 = icmp slt i32 %58, %67
  br i1 %68, label %69, label %221

69:                                               ; preds = %66
  call void @llvm.lifetime.start.p0(i64 1024, ptr %11) #16
  call void @llvm.memset.p0.i64(ptr align 16 %11, i8 0, i64 1024, i1 false)
  call void @llvm.lifetime.start.p0(i64 8, ptr %12) #16
  store i64 0, ptr %12, align 8, !tbaa !93
  %70 = load i32, ptr %6, align 4, !tbaa !42
  %71 = sext i32 %70 to i64
  %72 = getelementptr inbounds [256 x i32], ptr %11, i64 0, i64 %71
  store i32 -1, ptr %72, align 4, !tbaa !42
  %73 = load ptr, ptr %4, align 8, !tbaa !56
  %74 = load i32, ptr %6, align 4, !tbaa !42
  %75 = sext i32 %74 to i64
  %76 = getelementptr inbounds i8, ptr %73, i64 %75
  %77 = load i8, ptr %76, align 1, !tbaa !43
  %78 = icmp ne i8 %77, 0
  br i1 %78, label %80, label %79

79:                                               ; preds = %69
  store i32 13, ptr %13, align 4
  br label %215

80:                                               ; preds = %69
  store i32 0, ptr %7, align 4, !tbaa !42
  br label %81

81:                                               ; preds = %211, %80
  %82 = load i32, ptr %7, align 4, !tbaa !42
  %83 = icmp slt i32 %82, 256
  br i1 %83, label %84, label %214

84:                                               ; preds = %81
  call void @llvm.lifetime.start.p0(i64 1024, ptr %14) #16
  call void @llvm.memset.p0.i64(ptr align 16 %14, i8 0, i64 1024, i1 false)
  store i32 1, ptr %8, align 4, !tbaa !42
  br label %85

85:                                               ; preds = %125, %84
  %86 = load i32, ptr %8, align 4, !tbaa !42
  %87 = icmp slt i32 %86, 256
  br i1 %87, label %88, label %128

88:                                               ; preds = %85
  %89 = load i32, ptr %8, align 4, !tbaa !42
  %90 = sext i32 %89 to i64
  %91 = getelementptr inbounds [256 x i32], ptr %11, i64 0, i64 %90
  %92 = load i32, ptr %91, align 4, !tbaa !42
  %93 = icmp ne i32 %92, 0
  br i1 %93, label %94, label %124

94:                                               ; preds = %88
  %95 = load i32, ptr %8, align 4, !tbaa !42
  %96 = sext i32 %95 to i64
  %97 = getelementptr inbounds [256 x i32], ptr %11, i64 0, i64 %96
  %98 = load i32, ptr %97, align 4, !tbaa !42
  %99 = zext i32 %98 to i64
  %100 = load i32, ptr %5, align 4, !tbaa !42
  %101 = sext i32 %100 to i64
  %102 = load i32, ptr %8, align 4, !tbaa !42
  %103 = sext i32 %102 to i64
  %104 = getelementptr inbounds [256 x i32], ptr %9, i64 0, i64 %103
  %105 = load i32, ptr %104, align 4, !tbaa !42
  %106 = zext i32 %105 to i64
  %107 = mul i64 %101, %106
  %108 = load i32, ptr %5, align 4, !tbaa !42
  %109 = sub nsw i32 256, %108
  %110 = sext i32 %109 to i64
  %111 = load i32, ptr %8, align 4, !tbaa !42
  %112 = sub nsw i32 256, %111
  %113 = sext i32 %112 to i64
  %114 = getelementptr inbounds [256 x i32], ptr %9, i64 0, i64 %113
  %115 = load i32, ptr %114, align 4, !tbaa !42
  %116 = zext i32 %115 to i64
  %117 = mul i64 %110, %116
  %118 = add i64 %107, %117
  %119 = lshr i64 %118, 8
  %120 = mul i64 %99, %119
  %121 = lshr i64 %120, 8
  %122 = load i64, ptr %12, align 8, !tbaa !93
  %123 = add i64 %122, %121
  store i64 %123, ptr %12, align 8, !tbaa !93
  br label %124

124:                                              ; preds = %94, %88
  br label %125

125:                                              ; preds = %124
  %126 = load i32, ptr %8, align 4, !tbaa !42
  %127 = add nsw i32 %126, 1
  store i32 %127, ptr %8, align 4, !tbaa !42
  br label %85, !llvm.loop !113

128:                                              ; preds = %85
  %129 = load i64, ptr %12, align 8, !tbaa !93
  %130 = load i32, ptr %7, align 4, !tbaa !42
  %131 = sext i32 %130 to i64
  %132 = getelementptr inbounds [256 x i64], ptr %10, i64 0, i64 %131
  %133 = load i64, ptr %132, align 8, !tbaa !93
  %134 = icmp ult i64 %129, %133
  br i1 %134, label %135, label %149

135:                                              ; preds = %128
  %136 = load i64, ptr %12, align 8, !tbaa !93
  %137 = load i32, ptr %7, align 4, !tbaa !42
  %138 = sext i32 %137 to i64
  %139 = getelementptr inbounds [256 x i64], ptr %10, i64 0, i64 %138
  store i64 %136, ptr %139, align 8, !tbaa !93
  %140 = load i32, ptr %6, align 4, !tbaa !42
  %141 = trunc i32 %140 to i8
  %142 = load ptr, ptr %3, align 8, !tbaa !56
  %143 = load i32, ptr %5, align 4, !tbaa !42
  %144 = sext i32 %143 to i64
  %145 = getelementptr inbounds [256 x i8], ptr %142, i64 %144
  %146 = load i32, ptr %7, align 4, !tbaa !42
  %147 = sext i32 %146 to i64
  %148 = getelementptr inbounds [256 x i8], ptr %145, i64 0, i64 %147
  store i8 %141, ptr %148, align 1, !tbaa !43
  br label %149

149:                                              ; preds = %135, %128
  store i32 1, ptr %8, align 4, !tbaa !42
  br label %150

150:                                              ; preds = %205, %149
  %151 = load i32, ptr %8, align 4, !tbaa !42
  %152 = icmp slt i32 %151, 256
  br i1 %152, label %153, label %208

153:                                              ; preds = %150
  %154 = load i32, ptr %8, align 4, !tbaa !42
  %155 = sext i32 %154 to i64
  %156 = getelementptr inbounds [256 x i32], ptr %11, i64 0, i64 %155
  %157 = load i32, ptr %156, align 4, !tbaa !42
  %158 = icmp ne i32 %157, 0
  br i1 %158, label %159, label %204

159:                                              ; preds = %153
  %160 = load i32, ptr %8, align 4, !tbaa !42
  %161 = sext i32 %160 to i64
  %162 = getelementptr inbounds [256 x i32], ptr %11, i64 0, i64 %161
  %163 = load i32, ptr %162, align 4, !tbaa !42
  %164 = zext i32 %163 to i64
  %165 = load i32, ptr %5, align 4, !tbaa !42
  %166 = sext i32 %165 to i64
  %167 = mul i64 %164, %166
  %168 = lshr i64 %167, 8
  %169 = load ptr, ptr %4, align 8, !tbaa !56
  %170 = load i32, ptr %8, align 4, !tbaa !42
  %171 = sext i32 %170 to i64
  %172 = getelementptr inbounds i8, ptr %169, i64 %171
  %173 = load i8, ptr %172, align 1, !tbaa !43
  %174 = zext i8 %173 to i64
  %175 = getelementptr inbounds nuw [256 x i32], ptr %14, i64 0, i64 %174
  %176 = load i32, ptr %175, align 4, !tbaa !42
  %177 = zext i32 %176 to i64
  %178 = add i64 %177, %168
  %179 = trunc i64 %178 to i32
  store i32 %179, ptr %175, align 4, !tbaa !42
  %180 = load i32, ptr %8, align 4, !tbaa !42
  %181 = sext i32 %180 to i64
  %182 = getelementptr inbounds [256 x i32], ptr %11, i64 0, i64 %181
  %183 = load i32, ptr %182, align 4, !tbaa !42
  %184 = zext i32 %183 to i64
  %185 = load i32, ptr %5, align 4, !tbaa !42
  %186 = sub nsw i32 256, %185
  %187 = sext i32 %186 to i64
  %188 = mul i64 %184, %187
  %189 = lshr i64 %188, 8
  %190 = load ptr, ptr %4, align 8, !tbaa !56
  %191 = load i32, ptr %8, align 4, !tbaa !42
  %192 = sub nsw i32 256, %191
  %193 = sext i32 %192 to i64
  %194 = getelementptr inbounds i8, ptr %190, i64 %193
  %195 = load i8, ptr %194, align 1, !tbaa !43
  %196 = zext i8 %195 to i32
  %197 = sub nsw i32 256, %196
  %198 = sext i32 %197 to i64
  %199 = getelementptr inbounds [256 x i32], ptr %14, i64 0, i64 %198
  %200 = load i32, ptr %199, align 4, !tbaa !42
  %201 = zext i32 %200 to i64
  %202 = add i64 %201, %189
  %203 = trunc i64 %202 to i32
  store i32 %203, ptr %199, align 4, !tbaa !42
  br label %204

204:                                              ; preds = %159, %153
  br label %205

205:                                              ; preds = %204
  %206 = load i32, ptr %8, align 4, !tbaa !42
  %207 = add nsw i32 %206, 1
  store i32 %207, ptr %8, align 4, !tbaa !42
  br label %150, !llvm.loop !114

208:                                              ; preds = %150
  %209 = getelementptr inbounds [256 x i32], ptr %11, i64 0, i64 0
  %210 = getelementptr inbounds [256 x i32], ptr %14, i64 0, i64 0
  call void @llvm.memcpy.p0.p0.i64(ptr align 16 %209, ptr align 16 %210, i64 1024, i1 false)
  call void @llvm.lifetime.end.p0(i64 1024, ptr %14) #16
  br label %211

211:                                              ; preds = %208
  %212 = load i32, ptr %7, align 4, !tbaa !42
  %213 = add nsw i32 %212, 1
  store i32 %213, ptr %7, align 4, !tbaa !42
  br label %81, !llvm.loop !115

214:                                              ; preds = %81
  store i32 0, ptr %13, align 4
  br label %215

215:                                              ; preds = %214, %79
  call void @llvm.lifetime.end.p0(i64 8, ptr %12) #16
  call void @llvm.lifetime.end.p0(i64 1024, ptr %11) #16
  %216 = load i32, ptr %13, align 4
  switch i32 %216, label %226 [
    i32 0, label %217
    i32 13, label %218
  ]

217:                                              ; preds = %215
  br label %218

218:                                              ; preds = %217, %215
  %219 = load i32, ptr %6, align 4, !tbaa !42
  %220 = add nsw i32 %219, 1
  store i32 %220, ptr %6, align 4, !tbaa !42
  br label %57, !llvm.loop !116

221:                                              ; preds = %66
  call void @llvm.lifetime.end.p0(i64 2048, ptr %10) #16
  br label %222

222:                                              ; preds = %221
  %223 = load i32, ptr %5, align 4, !tbaa !42
  %224 = add nsw i32 %223, 1
  store i32 %224, ptr %5, align 4, !tbaa !42
  br label %33, !llvm.loop !117

225:                                              ; preds = %33
  call void @llvm.lifetime.end.p0(i64 1024, ptr %9) #16
  call void @llvm.lifetime.end.p0(i64 4, ptr %8) #16
  call void @llvm.lifetime.end.p0(i64 4, ptr %7) #16
  call void @llvm.lifetime.end.p0(i64 4, ptr %6) #16
  call void @llvm.lifetime.end.p0(i64 4, ptr %5) #16
  ret void

226:                                              ; preds = %215
  unreachable
}