; Function Attrs: nofree norecurse nosync nounwind memory(argmem: readwrite) uwtable
define internal fastcc void @find_best_state(ptr noundef writeonly captures(none) %0, ptr noundef readonly captures(none) %1) unnamed_addr #9 {
  %3 = alloca [256 x i32], align 16
  %4 = alloca [256 x i64], align 16
  %5 = alloca [256 x i32], align 16
  %6 = alloca [256 x i32], align 16
  call void @llvm.lifetime.start.p0(i64 1024, ptr nonnull %3) #19
  br label %7

7:                                                ; preds = %2, %7
  %indvars.iv = phi i64 [ 1, %2 ], [ %indvars.iv.next, %7 ]
  %8 = trunc nuw nsw i64 %indvars.iv to i32
  %9 = uitofp nneg i32 %8 to double
  %10 = fmul nsz double %9, 3.906250e-03
  %11 = tail call nsz double @llvm.log2.f64(double %10)
  %12 = fmul nsz double %11, 0xC1B0000000000000
  %13 = fptoui double %12 to i32
  %14 = getelementptr inbounds nuw [256 x i32], ptr %3, i64 0, i64 %indvars.iv
  store i32 %13, ptr %14, align 4, !tbaa !60
  %indvars.iv.next = add nuw nsw i64 %indvars.iv, 1
  %exitcond.not = icmp eq i64 %indvars.iv.next, 256
  br i1 %exitcond.not, label %.preheader58, label %7, !llvm.loop !111

.preheader58:                                     ; preds = %7, %._crit_edge
  %indvars.iv88 = phi i64 [ %indvars.iv.next89, %._crit_edge ], [ 0, %7 ]
  %15 = trunc nuw nsw i64 %indvars.iv88 to i32
  %smax = tail call i32 @llvm.smax.i32(i32 %15, i32 11)
  call void @llvm.lifetime.start.p0(i64 2048, ptr nonnull %4) #19
  call void @llvm.memset.p0.i64(ptr noundef nonnull align 16 dereferenceable(2048) %4, i8 -1, i64 2048, i1 false), !tbaa !95
  %16 = add nsw i32 %smax, -10
  %17 = tail call i32 @llvm.umin.i32(i32 %15, i32 245)
  %18 = add nuw nsw i32 %17, 11
  %19 = icmp samesign ult i32 %16, %18
  br i1 %19, label %.lr.ph, label %._crit_edge

.lr.ph:                                           ; preds = %.preheader58
  %20 = zext nneg i32 %smax to i64
  %21 = add nsw i64 %20, -10
  %22 = sub nuw nsw i64 256, %indvars.iv88
  %23 = zext nneg i32 %18 to i64
  br label %24

24:                                               ; preds = %.lr.ph, %.loopexit
  %indvars.iv85 = phi i64 [ %21, %.lr.ph ], [ %indvars.iv.next86, %.loopexit ]
  call void @llvm.lifetime.start.p0(i64 1024, ptr nonnull %5) #19
  call void @llvm.memset.p0.i64(ptr noundef nonnull align 16 dereferenceable(1024) %5, i8 0, i64 1024, i1 false)
  %25 = getelementptr inbounds [256 x i32], ptr %5, i64 0, i64 %indvars.iv85
  store i32 -1, ptr %25, align 4, !tbaa !60
  %26 = getelementptr inbounds i8, ptr %1, i64 %indvars.iv85
  %27 = load i8, ptr %26, align 1, !tbaa !39
  %.not = icmp eq i8 %27, 0
  br i1 %.not, label %.loopexit, label %.preheader

.preheader:                                       ; preds = %24
  %28 = trunc i64 %indvars.iv85 to i8
  br label %29

29:                                               ; preds = %.preheader, %82
  %indvars.iv80 = phi i64 [ 0, %.preheader ], [ %indvars.iv.next81, %82 ]
  %.065 = phi i64 [ 0, %.preheader ], [ %.2, %82 ]
  call void @llvm.lifetime.start.p0(i64 1024, ptr nonnull %6) #19
  call void @llvm.memset.p0.i64(ptr noundef nonnull align 16 dereferenceable(1024) %6, i8 0, i64 1024, i1 false)
  br label %30

30:                                               ; preds = %29, %49
  %indvars.iv72 = phi i64 [ 1, %29 ], [ %indvars.iv.next73, %49 ]
  %.162 = phi i64 [ %.065, %29 ], [ %.2, %49 ]
  %31 = getelementptr inbounds nuw [256 x i32], ptr %5, i64 0, i64 %indvars.iv72
  %32 = load i32, ptr %31, align 4, !tbaa !60
  %.not57 = icmp eq i32 %32, 0
  br i1 %.not57, label %49, label %33

33:                                               ; preds = %30
  %34 = zext i32 %32 to i64
  %35 = getelementptr inbounds nuw [256 x i32], ptr %3, i64 0, i64 %indvars.iv72
  %36 = load i32, ptr %35, align 4, !tbaa !60
  %37 = zext i32 %36 to i64
  %38 = mul nuw nsw i64 %indvars.iv88, %37
  %39 = sub nuw nsw i64 256, %indvars.iv72
  %40 = getelementptr inbounds nuw [256 x i32], ptr %3, i64 0, i64 %39
  %41 = load i32, ptr %40, align 4, !tbaa !60
  %42 = zext i32 %41 to i64
  %43 = mul nuw nsw i64 %22, %42
  %44 = add nuw nsw i64 %43, %38
  %45 = lshr i64 %44, 8
  %46 = mul i64 %45, %34
  %47 = lshr i64 %46, 8
  %48 = add i64 %47, %.162
  br label %49

49:                                               ; preds = %30, %33
  %.2 = phi i64 [ %48, %33 ], [ %.162, %30 ]
  %indvars.iv.next73 = add nuw nsw i64 %indvars.iv72, 1
  %exitcond75.not = icmp eq i64 %indvars.iv.next73, 256
  br i1 %exitcond75.not, label %50, label %30, !llvm.loop !112

50:                                               ; preds = %49
  %51 = getelementptr inbounds nuw [256 x i64], ptr %4, i64 0, i64 %indvars.iv80
  %52 = load i64, ptr %51, align 8, !tbaa !95
  %53 = icmp ult i64 %.2, %52
  br i1 %53, label %54, label %.preheader92

54:                                               ; preds = %50
  store i64 %.2, ptr %51, align 8, !tbaa !95
  %55 = getelementptr inbounds nuw [256 x i8], ptr %0, i64 %indvars.iv88, i64 %indvars.iv80
  store i8 %28, ptr %55, align 1, !tbaa !39
  br label %.preheader92

.preheader92:                                     ; preds = %54, %50
  br label %56

56:                                               ; preds = %.preheader92, %81
  %indvars.iv76 = phi i64 [ %indvars.iv.next77, %81 ], [ 1, %.preheader92 ]
  %57 = getelementptr inbounds nuw [256 x i32], ptr %5, i64 0, i64 %indvars.iv76
  %58 = load i32, ptr %57, align 4, !tbaa !60
  %.not56 = icmp eq i32 %58, 0
  br i1 %.not56, label %81, label %59

59:                                               ; preds = %56
  %60 = zext i32 %58 to i64
  %61 = mul nuw nsw i64 %indvars.iv88, %60
  %62 = lshr i64 %61, 8
  %63 = getelementptr inbounds nuw i8, ptr %1, i64 %indvars.iv76
  %64 = load i8, ptr %63, align 1, !tbaa !39
  %65 = zext i8 %64 to i64
  %66 = getelementptr inbounds nuw [256 x i32], ptr %6, i64 0, i64 %65
  %67 = load i32, ptr %66, align 4, !tbaa !60
  %68 = trunc nuw i64 %62 to i32
  %69 = add i32 %67, %68
  store i32 %69, ptr %66, align 4, !tbaa !60
  %70 = mul nuw nsw i64 %22, %60
  %71 = lshr i64 %70, 8
  %72 = sub nuw nsw i64 256, %indvars.iv76
  %73 = getelementptr inbounds nuw i8, ptr %1, i64 %72
  %74 = load i8, ptr %73, align 1, !tbaa !39
  %75 = zext i8 %74 to i64
  %76 = sub nuw nsw i64 256, %75
  %77 = getelementptr inbounds nuw [256 x i32], ptr %6, i64 0, i64 %76
  %78 = load i32, ptr %77, align 4, !tbaa !60
  %79 = trunc nuw i64 %71 to i32
  %80 = add i32 %78, %79
  store i32 %80, ptr %77, align 4, !tbaa !60
  br label %81

81:                                               ; preds = %56, %59
  %indvars.iv.next77 = add nuw nsw i64 %indvars.iv76, 1
  %exitcond79.not = icmp eq i64 %indvars.iv.next77, 256
  br i1 %exitcond79.not, label %82, label %56, !llvm.loop !113

82:                                               ; preds = %81
  call void @llvm.memcpy.p0.p0.i64(ptr noundef nonnull align 16 dereferenceable(1024) %5, ptr noundef nonnull align 16 dereferenceable(1024) %6, i64 1024, i1 false)
  call void @llvm.lifetime.end.p0(i64 1024, ptr nonnull %6) #19
  %indvars.iv.next81 = add nuw nsw i64 %indvars.iv80, 1
  %exitcond83.not = icmp eq i64 %indvars.iv.next81, 256
  br i1 %exitcond83.not, label %.loopexit, label %29, !llvm.loop !114

.loopexit:                                        ; preds = %82, %24
  call void @llvm.lifetime.end.p0(i64 1024, ptr nonnull %5) #19
  %indvars.iv.next86 = add nuw nsw i64 %indvars.iv85, 1
  %83 = icmp samesign ult i64 %indvars.iv.next86, %23
  br i1 %83, label %24, label %._crit_edge, !llvm.loop !115

._crit_edge:                                      ; preds = %.loopexit, %.preheader58
  call void @llvm.lifetime.end.p0(i64 2048, ptr nonnull %4) #19
  %indvars.iv.next89 = add nuw nsw i64 %indvars.iv88, 1
  %exitcond91.not = icmp eq i64 %indvars.iv.next89, 256
  br i1 %exitcond91.not, label %84, label %.preheader58, !llvm.loop !116

84:                                               ; preds = %._crit_edge
  call void @llvm.lifetime.end.p0(i64 1024, ptr nonnull %3) #19
  ret void
}